; Function Attrs: nounwind uwtable
define i32 @Abc_TtGetCM3(ptr noundef readonly captures(none) %0, i32 noundef %1, ptr noundef captures(none) %2, ptr noundef captures(none) initializes((4, 8)) %3) local_unnamed_addr #3 {
  %5 = add nsw i32 %1, -3
  %6 = getelementptr inbounds nuw i8, ptr %3, i64 4
  store i32 0, ptr %6, align 4, !tbaa !14
  %.not = icmp eq i32 %5, 31
  br i1 %.not, label %.critedge, label %.lr.ph

.lr.ph:                                           ; preds = %4
  %7 = shl nuw i32 1, %5
  %.phi.trans.insert.i = getelementptr inbounds nuw i8, ptr %3, i64 8
  %smax = tail call i32 @llvm.smax.i32(i32 %7, i32 1)
  %wide.trip.count = zext nneg i32 %smax to i64
  br label %10

.preheader:                                       ; preds = %48
  %.val25.pre = load i32, ptr %6, align 4, !tbaa !14
  %8 = icmp sgt i32 %.val25.pre, 0
  br i1 %8, label %.lr.ph27, label %.critedge

.lr.ph27:                                         ; preds = %.preheader
  %9 = getelementptr i8, ptr %3, i64 8
  %.val23 = load ptr, ptr %9, align 8, !tbaa !18
  br label %49

10:                                               ; preds = %.lr.ph, %48
  %indvars.iv = phi i64 [ 0, %.lr.ph ], [ %indvars.iv.next, %48 ]
  %11 = getelementptr inbounds nuw i8, ptr %0, i64 %indvars.iv
  %12 = load i8, ptr %11, align 1, !tbaa !19
  %13 = zext i8 %12 to i64
  %14 = getelementptr inbounds nuw i32, ptr %2, i64 %13
  %15 = load i32, ptr %14, align 4, !tbaa !7
  %16 = icmp eq i32 %15, 1
  br i1 %16, label %48, label %17

17:                                               ; preds = %10
  store i32 1, ptr %14, align 4, !tbaa !7
  %18 = load i8, ptr %11, align 1, !tbaa !19
  %19 = zext i8 %18 to i32
  %20 = load i32, ptr %6, align 4, !tbaa !14
  %21 = load i32, ptr %3, align 8, !tbaa !20
  %22 = icmp eq i32 %20, %21
  br i1 %22, label %23, label %.Vec_IntGrow.exit10_crit_edge.i

.Vec_IntGrow.exit10_crit_edge.i:                  ; preds = %17
  %.pre.i = load ptr, ptr %.phi.trans.insert.i, align 8, !tbaa !18
  br label %Vec_IntPush.exit

23:                                               ; preds = %17
  %24 = icmp slt i32 %20, 16
  br i1 %24, label %25, label %32

25:                                               ; preds = %23
  %26 = load ptr, ptr %.phi.trans.insert.i, align 8, !tbaa !18
  %.not9.i.i = icmp eq ptr %26, null
  br i1 %.not9.i.i, label %29, label %27

27:                                               ; preds = %25
  %28 = tail call dereferenceable_or_null(64) ptr @realloc(ptr noundef nonnull %26, i64 noundef 64) #25
  br label %Vec_IntGrow.exit.i

29:                                               ; preds = %25
  %30 = tail call noalias dereferenceable_or_null(64) ptr @malloc(i64 noundef 64) #26
  br label %Vec_IntGrow.exit.i

Vec_IntGrow.exit.i:                               ; preds = %29, %27
  %31 = phi ptr [ %28, %27 ], [ %30, %29 ]
  store ptr %31, ptr %.phi.trans.insert.i, align 8, !tbaa !18
  store i32 16, ptr %3, align 8, !tbaa !20
  br label %Vec_IntPush.exit

32:                                               ; preds = %23
  %33 = shl nuw nsw i32 %20, 1
  %34 = load ptr, ptr %.phi.trans.insert.i, align 8, !tbaa !18
  %.not9.i9.i = icmp eq ptr %34, null
  %35 = zext nneg i32 %33 to i64
  %36 = shl nuw nsw i64 %35, 2
  br i1 %.not9.i9.i, label %39, label %37

37:                                               ; preds = %32
  %38 = tail call ptr @realloc(ptr noundef nonnull %34, i64 noundef %36) #25
  br label %41

39:                                               ; preds = %32
  %40 = tail call noalias ptr @malloc(i64 noundef %36) #26
  br label %41

41:                                               ; preds = %39, %37
  %42 = phi ptr [ %38, %37 ], [ %40, %39 ]
  store ptr %42, ptr %.phi.trans.insert.i, align 8, !tbaa !18
  store i32 %33, ptr %3, align 8, !tbaa !20
  br label %Vec_IntPush.exit

Vec_IntPush.exit:                                 ; preds = %.Vec_IntGrow.exit10_crit_edge.i, %Vec_IntGrow.exit.i, %41
  %43 = phi ptr [ %.pre.i, %.Vec_IntGrow.exit10_crit_edge.i ], [ %42, %41 ], [ %31, %Vec_IntGrow.exit.i ]
  %44 = load i32, ptr %6, align 4, !tbaa !14
  %45 = add nsw i32 %44, 1
  store i32 %45, ptr %6, align 4, !tbaa !14
  %46 = sext i32 %44 to i64
  %47 = getelementptr inbounds i32, ptr %43, i64 %46
  store i32 %19, ptr %47, align 4, !tbaa !7
  br label %48

48:                                               ; preds = %10, %Vec_IntPush.exit
  %indvars.iv.next = add nuw nsw i64 %indvars.iv, 1
  %exitcond.not = icmp eq i64 %indvars.iv.next, %wide.trip.count
  br i1 %exitcond.not, label %.preheader, label %10, !llvm.loop !21

49:                                               ; preds = %.lr.ph27, %49
  %indvars.iv30 = phi i64 [ 0, %.lr.ph27 ], [ %indvars.iv.next31, %49 ]
  %50 = getelementptr inbounds nuw i32, ptr %.val23, i64 %indvars.iv30
  %51 = load i32, ptr %50, align 4, !tbaa !7
  %52 = sext i32 %51 to i64
  %53 = getelementptr inbounds i32, ptr %2, i64 %52
  store i32 -1, ptr %53, align 4, !tbaa !7
  %indvars.iv.next31 = add nuw nsw i64 %indvars.iv30, 1
  %.val = load i32, ptr %6, align 4, !tbaa !14
  %54 = sext i32 %.val to i64
  %55 = icmp slt i64 %indvars.iv.next31, %54
  br i1 %55, label %49, label %.critedge, !llvm.loop !22

.critedge:                                        ; preds = %49, %4, %.preheader
  %.val.lcssa = phi i32 [ %.val25.pre, %.preheader ], [ 0, %4 ], [ %.val, %49 ]
  ret i32 %.val.lcssa
}